target datalayout = "e-m:e-p270:32:32-p271:32:32-p272:64:64-i64:64-i128:128-f80:128-n8:16:32:64-S128"
target triple = "x86_64-pc-linux-gnu"

%"class.absl::synchronization_internal::GraphCycles" = type { ptr }
%"struct.absl::synchronization_internal::GraphCycles::Rep" = type { %"class.absl::synchronization_internal::(anonymous namespace)::Vec", %"class.absl::synchronization_internal::(anonymous namespace)::Vec.0", %"class.absl::synchronization_internal::(anonymous namespace)::PointerMap", %"class.absl::synchronization_internal::(anonymous namespace)::Vec.0", %"class.absl::synchronization_internal::(anonymous namespace)::Vec.0", %"class.absl::synchronization_internal::(anonymous namespace)::Vec.0", %"class.absl::synchronization_internal::(anonymous namespace)::Vec.0", %"class.absl::synchronization_internal::(anonymous namespace)::Vec.0" }
%"class.absl::synchronization_internal::(anonymous namespace)::Vec" = type { ptr, [8 x ptr], i32, i32 }
%"class.absl::synchronization_internal::(anonymous namespace)::PointerMap" = type <{ ptr, %"struct.std::array", [4 x i8] }>
%"struct.std::array" = type { [262139 x i32] }
%"class.absl::synchronization_internal::(anonymous namespace)::Vec.0" = type { ptr, [8 x i32], i32, i32 }
%"struct.absl::synchronization_internal::(anonymous namespace)::Node" = type { i32, i32, i32, i8, i64, %"class.absl::synchronization_internal::(anonymous namespace)::NodeSet", %"class.absl::synchronization_internal::(anonymous namespace)::NodeSet", i32, i32, [40 x ptr] }
%"class.absl::synchronization_internal::(anonymous namespace)::NodeSet" = type <{ %"class.absl::synchronization_internal::(anonymous namespace)::Vec.0", i32, [4 x i8] }>

; Function Attrs: mustprogress uwtable
define internal void @_ZN4absl24synchronization_internal12_GLOBAL__N_13VecIiE7DiscardEv(ptr noundef nonnull align 8 dereferenceable(48) %0) #0 align 2 {
  %2 = alloca ptr, align 8
  store ptr %0, ptr %2, align 8, !tbaa !63
  %3 = load ptr, ptr %2, align 8
  %4 = getelementptr inbounds nuw %"class.absl::synchronization_internal::(anonymous namespace)::Vec.0", ptr %3, i32 0, i32 0
  %5 = load ptr, ptr %4, align 8, !tbaa !66
  %6 = getelementptr inbounds nuw %"class.absl::synchronization_internal::(anonymous namespace)::Vec.0", ptr %3, i32 0, i32 1
  %7 = getelementptr inbounds [8 x i32], ptr %6, i64 0, i64 0
  %8 = icmp ne ptr %5, %7
  br i1 %8, label %9, label %12

9:                                                ; preds = %1
  %10 = getelementptr inbounds nuw %"class.absl::synchronization_internal::(anonymous namespace)::Vec.0", ptr %3, i32 0, i32 0
  %11 = load ptr, ptr %10, align 8, !tbaa !66
  call void @_ZN4absl13base_internal13LowLevelAlloc4FreeEPv(ptr noundef %11)
  br label %12

12:                                               ; preds = %9, %1
  ret void
}

; Function Attrs: mustprogress nounwind uwtable
define internal void @_ZN4absl24synchronization_internal12_GLOBAL__N_13VecIiED2Ev(ptr noundef nonnull align 8 dereferenceable(48) %0) unnamed_addr #2 align 2 personality ptr @__gxx_personality_v0 {
  %2 = alloca ptr, align 8
  store ptr %0, ptr %2, align 8, !tbaa !63
  %3 = load ptr, ptr %2, align 8
  invoke void @_ZN4absl24synchronization_internal12_GLOBAL__N_13VecIiE7DiscardEv(ptr noundef nonnull align 8 dereferenceable(48) %3)
          to label %4 unwind label %5

4:                                                ; preds = %1
  ret void

5:                                                ; preds = %1
  %6 = landingpad { ptr, i32 }
          catch ptr null
  %7 = extractvalue { ptr, i32 } %6, 0
  call void @__clang_call_terminate(ptr %7) #13
  unreachable
}

; Function Attrs: inlinehint mustprogress nounwind uwtable
define internal void @_ZN4absl24synchronization_internal12_GLOBAL__N_17NodeSetD2Ev(ptr noundef nonnull align 8 dereferenceable(52) %0) unnamed_addr #5 align 2 {
  %2 = alloca ptr, align 8
  store ptr %0, ptr %2, align 8, !tbaa !45
  %3 = load ptr, ptr %2, align 8
  %4 = getelementptr inbounds nuw %"class.absl::synchronization_internal::(anonymous namespace)::NodeSet", ptr %3, i32 0, i32 0
  call void @_ZN4absl24synchronization_internal12_GLOBAL__N_13VecIiED2Ev(ptr noundef nonnull align 8 dereferenceable(48) %4) #12
  ret void
}

; Function Attrs: inlinehint mustprogress nounwind uwtable
define internal void @_ZN4absl24synchronization_internal12_GLOBAL__N_14NodeD2Ev(ptr noundef nonnull align 8 dereferenceable(464) %0) unnamed_addr #5 align 2 {
  %2 = alloca ptr, align 8
  store ptr %0, ptr %2, align 8, !tbaa !14
  %3 = load ptr, ptr %2, align 8
  %4 = getelementptr inbounds nuw %"struct.absl::synchronization_internal::(anonymous namespace)::Node", ptr %3, i32 0, i32 6
  call void @_ZN4absl24synchronization_internal12_GLOBAL__N_17NodeSetD2Ev(ptr noundef nonnull align 8 dereferenceable(52) %4) #12
  %5 = getelementptr inbounds nuw %"struct.absl::synchronization_internal::(anonymous namespace)::Node", ptr %3, i32 0, i32 5
  call void @_ZN4absl24synchronization_internal12_GLOBAL__N_17NodeSetD2Ev(ptr noundef nonnull align 8 dereferenceable(52) %5) #12
  ret void
}

; Function Attrs: mustprogress nounwind uwtable
define internal noundef ptr @_ZN4absl24synchronization_internal12_GLOBAL__N_13VecIPNS1_4NodeEE3endEv(ptr noundef nonnull align 8 dereferenceable(80) %0) #2 align 2 {
  %2 = alloca ptr, align 8
  store ptr %0, ptr %2, align 8, !tbaa !18
  %3 = load ptr, ptr %2, align 8
  %4 = getelementptr inbounds nuw %"class.absl::synchronization_internal::(anonymous namespace)::Vec", ptr %3, i32 0, i32 0
  %5 = load ptr, ptr %4, align 8, !tbaa !24
  %6 = getelementptr inbounds nuw %"class.absl::synchronization_internal::(anonymous namespace)::Vec", ptr %3, i32 0, i32 2
  %7 = load i32, ptr %6, align 8, !tbaa !20
  %8 = zext i32 %7 to i64
  %9 = getelementptr inbounds nuw ptr, ptr %5, i64 %8
  ret ptr %9
}

; Function Attrs: mustprogress nounwind uwtable
define internal noundef ptr @_ZN4absl24synchronization_internal12_GLOBAL__N_13VecIPNS1_4NodeEE5beginEv(ptr noundef nonnull align 8 dereferenceable(80) %0) #2 align 2 {
  %2 = alloca ptr, align 8
  store ptr %0, ptr %2, align 8, !tbaa !18
  %3 = load ptr, ptr %2, align 8
  %4 = getelementptr inbounds nuw %"class.absl::synchronization_internal::(anonymous namespace)::Vec", ptr %3, i32 0, i32 0
  %5 = load ptr, ptr %4, align 8, !tbaa !24
  ret ptr %5
}

; Function Attrs: mustprogress nounwind uwtable
define dso_local void @_ZN4absl24synchronization_internal11GraphCyclesD2Ev(ptr noundef nonnull align 8 dereferenceable(8) %0) unnamed_addr #2 align 2 personality ptr @__gxx_personality_v0 {
  %2 = alloca ptr, align 8
  %3 = alloca ptr, align 8
  %4 = alloca ptr, align 8
  %5 = alloca ptr, align 8
  %6 = alloca i32, align 4
  %7 = alloca ptr, align 8
  store ptr %0, ptr %2, align 8, !tbaa !4
  %8 = load ptr, ptr %2, align 8
  call void @llvm.lifetime.start.p0(i64 8, ptr %3) #12
  %9 = getelementptr inbounds nuw %"class.absl::synchronization_internal::GraphCycles", ptr %8, i32 0, i32 0
  %10 = load ptr, ptr %9, align 8, !tbaa !11
  %11 = getelementptr inbounds nuw %"struct.absl::synchronization_internal::GraphCycles::Rep", ptr %10, i32 0, i32 0
  store ptr %11, ptr %3, align 8, !tbaa !18
  call void @llvm.lifetime.start.p0(i64 8, ptr %4) #12
  %12 = load ptr, ptr %3, align 8, !tbaa !18
  %13 = invoke noundef ptr @_ZN4absl24synchronization_internal12_GLOBAL__N_13VecIPNS1_4NodeEE5beginEv(ptr noundef nonnull align 8 dereferenceable(80) %12)
          to label %14 unwind label %45

14:                                               ; preds = %1
  store ptr %13, ptr %4, align 8, !tbaa !28
  call void @llvm.lifetime.start.p0(i64 8, ptr %5) #12
  %15 = load ptr, ptr %3, align 8, !tbaa !18
  %16 = invoke noundef ptr @_ZN4absl24synchronization_internal12_GLOBAL__N_13VecIPNS1_4NodeEE3endEv(ptr noundef nonnull align 8 dereferenceable(80) %15)
          to label %17 unwind label %45

17:                                               ; preds = %14
  store ptr %16, ptr %5, align 8, !tbaa !28
  br label %18

18:                                               ; preds = %36, %17
  %19 = load ptr, ptr %4, align 8, !tbaa !28
  %20 = load ptr, ptr %5, align 8, !tbaa !28
  %21 = icmp ne ptr %19, %20
  br i1 %21, label %23, label %22

22:                                               ; preds = %18
  store i32 2, ptr %6, align 4
  call void @llvm.lifetime.end.p0(i64 8, ptr %5) #12
  call void @llvm.lifetime.end.p0(i64 8, ptr %4) #12
  call void @llvm.lifetime.end.p0(i64 8, ptr %3) #12
  br label %39

23:                                               ; preds = %18
  call void @llvm.lifetime.start.p0(i64 8, ptr %7) #12
  %24 = load ptr, ptr %4, align 8, !tbaa !28
  %25 = load ptr, ptr %24, align 8, !tbaa !14
  store ptr %25, ptr %7, align 8, !tbaa !14
  %26 = load ptr, ptr %7, align 8, !tbaa !14
  %27 = icmp eq ptr %26, null
  br i1 %27, label %28, label %29

28:                                               ; preds = %23
  store i32 3, ptr %6, align 4
  br label %33

29:                                               ; preds = %23
  %30 = load ptr, ptr %7, align 8, !tbaa !14
  call void @_ZN4absl24synchronization_internal12_GLOBAL__N_14NodeD2Ev(ptr noundef nonnull align 8 dereferenceable(464) %30) #12
  %31 = load ptr, ptr %7, align 8, !tbaa !14
  invoke void @_ZN4absl13base_internal13LowLevelAlloc4FreeEPv(ptr noundef %31)
          to label %32 unwind label %45

32:                                               ; preds = %29
  store i32 0, ptr %6, align 4
  br label %33

33:                                               ; preds = %32, %28
  call void @llvm.lifetime.end.p0(i64 8, ptr %7) #12
  %34 = load i32, ptr %6, align 4
  switch i32 %34, label %48 [
    i32 0, label %35
    i32 3, label %36
  ]

35:                                               ; preds = %33
  br label %36

36:                                               ; preds = %35, %33
  %37 = load ptr, ptr %4, align 8, !tbaa !28
  %38 = getelementptr inbounds nuw ptr, ptr %37, i32 1
  store ptr %38, ptr %4, align 8, !tbaa !28
  br label %18

39:                                               ; preds = %22
  %40 = getelementptr inbounds nuw %"class.absl::synchronization_internal::GraphCycles", ptr %8, i32 0, i32 0
  %41 = load ptr, ptr %40, align 8, !tbaa !11
  call void @_ZN4absl24synchronization_internal11GraphCycles3RepD2Ev(ptr noundef nonnull align 8 dereferenceable(1048936) %41) #12
  %42 = getelementptr inbounds nuw %"class.absl::synchronization_internal::GraphCycles", ptr %8, i32 0, i32 0
  %43 = load ptr, ptr %42, align 8, !tbaa !11
  invoke void @_ZN4absl13base_internal13LowLevelAlloc4FreeEPv(ptr noundef %43)
          to label %44 unwind label %45

44:                                               ; preds = %39
  ret void

45:                                               ; preds = %39, %29, %14, %1
  %46 = landingpad { ptr, i32 }
          catch ptr null
  %47 = extractvalue { ptr, i32 } %46, 0
  call void @__clang_call_terminate(ptr %47) #13
  unreachable

48:                                               ; preds = %33
  unreachable
}