; Function Attrs: mustprogress nounwind uwtable
define dso_local void @_ZN4absl24synchronization_internal11GraphCyclesD2Ev(ptr noundef nonnull readonly align 8 captures(none) dereferenceable(8) %0) unnamed_addr #3 align 2 personality ptr @__gxx_personality_v0 {
  %2 = load ptr, ptr %0, align 8, !tbaa !4
  %.val = load ptr, ptr %2, align 8, !tbaa !19
  %3 = getelementptr i8, ptr %2, i64 72
  %.val12 = load i32, ptr %3, align 8, !tbaa !10
  %4 = zext i32 %.val12 to i64
  %5 = getelementptr inbounds nuw ptr, ptr %.val, i64 %4
  %.not13 = icmp eq i32 %.val12, 0
  br i1 %.not13, label %._crit_edge, label %.lr.ph

._crit_edge.loopexit:                             ; preds = %25
  %.pre = load ptr, ptr %0, align 8, !tbaa !4
  br label %._crit_edge

._crit_edge:                                      ; preds = %._crit_edge.loopexit, %1
  %6 = phi ptr [ %.pre, %._crit_edge.loopexit ], [ %2, %1 ]
  tail call void @_ZN4absl24synchronization_internal11GraphCycles3RepD2Ev(ptr noundef nonnull align 8 dereferenceable(1048936) %6) #17
  %7 = load ptr, ptr %0, align 8, !tbaa !4
  invoke void @_ZN4absl13base_internal13LowLevelAlloc4FreeEPv(ptr noundef %7)
          to label %27 unwind label %.loopexit.split-lp

.lr.ph:                                           ; preds = %1, %25
  %.014 = phi ptr [ %26, %25 ], [ %.val, %1 ]
  %8 = load ptr, ptr %.014, align 8, !tbaa !20
  %9 = icmp eq ptr %8, null
  br i1 %9, label %25, label %10

10:                                               ; preds = %.lr.ph
  %11 = getelementptr inbounds nuw i8, ptr %8, i64 80
  %12 = load ptr, ptr %11, align 8, !tbaa !22
  %13 = getelementptr inbounds nuw i8, ptr %8, i64 88
  %.not.i.i.i.i = icmp eq ptr %12, %13
  br i1 %.not.i.i.i.i, label %_ZN4absl24synchronization_internal12_GLOBAL__N_17NodeSetD2Ev.exit.i, label %14

14:                                               ; preds = %10
  invoke void @_ZN4absl13base_internal13LowLevelAlloc4FreeEPv(ptr noundef %12)
          to label %_ZN4absl24synchronization_internal12_GLOBAL__N_17NodeSetD2Ev.exit.i unwind label %15

15:                                               ; preds = %14
  %16 = landingpad { ptr, i32 }
          catch ptr null
  %17 = extractvalue { ptr, i32 } %16, 0
  tail call void @__clang_call_terminate(ptr %17) #18
  unreachable

_ZN4absl24synchronization_internal12_GLOBAL__N_17NodeSetD2Ev.exit.i: ; preds = %14, %10
  %18 = getelementptr inbounds nuw i8, ptr %8, i64 24
  %19 = load ptr, ptr %18, align 8, !tbaa !22
  %20 = getelementptr inbounds nuw i8, ptr %8, i64 32
  %.not.i.i.i1.i = icmp eq ptr %19, %20
  br i1 %.not.i.i.i1.i, label %_ZN4absl24synchronization_internal12_GLOBAL__N_14NodeD2Ev.exit, label %21

21:                                               ; preds = %_ZN4absl24synchronization_internal12_GLOBAL__N_17NodeSetD2Ev.exit.i
  invoke void @_ZN4absl13base_internal13LowLevelAlloc4FreeEPv(ptr noundef %19)
          to label %_ZN4absl24synchronization_internal12_GLOBAL__N_14NodeD2Ev.exit unwind label %22

22:                                               ; preds = %21
  %23 = landingpad { ptr, i32 }
          catch ptr null
  %24 = extractvalue { ptr, i32 } %23, 0
  tail call void @__clang_call_terminate(ptr %24) #18
  unreachable

_ZN4absl24synchronization_internal12_GLOBAL__N_14NodeD2Ev.exit: ; preds = %_ZN4absl24synchronization_internal12_GLOBAL__N_17NodeSetD2Ev.exit.i, %21
  invoke void @_ZN4absl13base_internal13LowLevelAlloc4FreeEPv(ptr noundef nonnull %8)
          to label %25 unwind label %.loopexit

25:                                               ; preds = %_ZN4absl24synchronization_internal12_GLOBAL__N_14NodeD2Ev.exit, %.lr.ph
  %26 = getelementptr inbounds nuw i8, ptr %.014, i64 8
  %.not = icmp eq ptr %26, %5
  br i1 %.not, label %._crit_edge.loopexit, label %.lr.ph

27:                                               ; preds = %._crit_edge
  ret void

.loopexit:                                        ; preds = %_ZN4absl24synchronization_internal12_GLOBAL__N_14NodeD2Ev.exit
  %lpad.loopexit = landingpad { ptr, i32 }
          catch ptr null
  br label %28

.loopexit.split-lp:                               ; preds = %._crit_edge
  %lpad.loopexit.split-lp = landingpad { ptr, i32 }
          catch ptr null
  br label %28

28:                                               ; preds = %.loopexit.split-lp, %.loopexit
  %lpad.phi = phi { ptr, i32 } [ %lpad.loopexit, %.loopexit ], [ %lpad.loopexit.split-lp, %.loopexit.split-lp ]
  %29 = extractvalue { ptr, i32 } %lpad.phi, 0
  tail call void @__clang_call_terminate(ptr %29) #18
  unreachable
}